target datalayout = "e-m:e-p270:32:32-p271:32:32-p272:64:64-i64:64-i128:128-f80:128-n8:16:32:64-S128"
target triple = "x86_64-pc-linux-gnu"

%struct.TCGContext = type { ptr, ptr, ptr, ptr, ptr, i32, i32, i32, i32, i32, i32, i32, i8, i8, i8, i32, i32, i64, i64, i64, ptr, ptr, ptr, ptr, ptr, i64, ptr, ptr, ptr, ptr, %struct.anon, ptr, ptr, ptr, ptr, ptr, [6 x ptr], [6 x %struct.TCGTempSet], [512 x %struct.TCGTemp], %union.anon, %union.anon, %struct.anon.0, ptr, [32 x ptr], [512 x i16], ptr, [1 x %struct.__jmp_buf_tag] }
%struct.anon = type { ptr, ptr }
%struct.TCGTempSet = type { [8 x i64] }
%struct.TCGTemp = type { i64, i64, ptr, i64, ptr, i64, ptr }
%union.anon = type { %struct.QTailQLink }
%struct.QTailQLink = type { ptr, ptr }
%struct.anon.0 = type { ptr, ptr }
%struct.__jmp_buf_tag = type { [8 x i64], i32, %struct.__sigset_t }
%struct.__sigset_t = type { [16 x i64] }

@.str.51 = private unnamed_addr constant [104 x i8] c"/home/dtcxzyw/WorkSpace/Projects/compilers/llvm-opt-benchmark/bench/qemu/qemu/tcg/i386/tcg-target.c.inc\00", align 1
@__func__.tgen_arithi = private unnamed_addr constant [12 x i8] c"tgen_arithi\00", align 1

; Function Attrs: alwaysinline nounwind
define internal ptr @memcpy.inline(ptr noalias nonnull %0, ptr noalias nonnull %1, i64 %2) #4 {
  %4 = alloca ptr, align 8
  %5 = alloca ptr, align 8
  %6 = alloca i64, align 8
  store ptr %0, ptr %4, align 8
  store ptr %1, ptr %5, align 8
  store i64 %2, ptr %6, align 8
  %7 = load ptr, ptr %4, align 8
  %8 = load ptr, ptr %5, align 8
  %9 = load i64, ptr %6, align 8
  %10 = load ptr, ptr %4, align 8
  %11 = call i64 @llvm.objectsize.i64.p0(ptr %10, i1 false, i1 true, i1 false)
  %12 = call ptr @__memcpy_chk(ptr noundef %7, ptr noundef %8, i64 noundef %9, i64 noundef %11) #19
  ret ptr %12
}

; Function Attrs: inlinehint nounwind sspstrong uwtable
define internal void @tcg_out32(ptr noundef %0, i32 noundef %1) #3 {
  %3 = alloca ptr, align 8
  %4 = alloca i32, align 4
  %5 = alloca ptr, align 8
  store ptr %0, ptr %3, align 8
  store i32 %1, ptr %4, align 4
  call void @llvm.lifetime.start.p0(i64 8, ptr %5) #19
  %6 = load ptr, ptr %3, align 8
  %7 = getelementptr inbounds nuw %struct.TCGContext, ptr %6, i32 0, i32 23
  %8 = load ptr, ptr %7, align 8
  store ptr %8, ptr %5, align 8
  %9 = load ptr, ptr %5, align 8
  %10 = call ptr @memcpy.inline(ptr noundef %9, ptr noundef %4, i64 noundef 4) #19
  %11 = load ptr, ptr %5, align 8
  %12 = getelementptr inbounds i8, ptr %11, i64 4
  %13 = load ptr, ptr %3, align 8
  %14 = getelementptr inbounds nuw %struct.TCGContext, ptr %13, i32 0, i32 23
  store ptr %12, ptr %14, align 8
  call void @llvm.lifetime.end.p0(i64 8, ptr %5) #19
  ret void
}

; Function Attrs: inlinehint nounwind sspstrong uwtable
define internal void @tcg_out8(ptr noundef %0, i8 noundef zeroext %1) #3 {
  %3 = alloca ptr, align 8
  %4 = alloca i8, align 1
  store ptr %0, ptr %3, align 8
  store i8 %1, ptr %4, align 1
  %5 = load i8, ptr %4, align 1
  %6 = load ptr, ptr %3, align 8
  %7 = getelementptr inbounds nuw %struct.TCGContext, ptr %6, i32 0, i32 23
  %8 = load ptr, ptr %7, align 8
  %9 = getelementptr inbounds nuw i8, ptr %8, i32 1
  store ptr %9, ptr %7, align 8
  store i8 %5, ptr %8, align 1
  ret void
}

; Function Attrs: nounwind sspstrong uwtable
define internal void @tcg_out_ext16u(ptr noundef %0, i32 noundef %1, i32 noundef %2) #0 {
  %4 = alloca ptr, align 8
  %5 = alloca i32, align 4
  %6 = alloca i32, align 4
  store ptr %0, ptr %4, align 8
  store i32 %1, ptr %5, align 4
  store i32 %2, ptr %6, align 4
  %7 = load ptr, ptr %4, align 8
  %8 = load i32, ptr %5, align 4
  %9 = load i32, ptr %6, align 4
  call void @tcg_out_modrm(ptr noundef %7, i32 noundef 439, i32 noundef %8, i32 noundef %9)
  ret void
}

; Function Attrs: nounwind sspstrong uwtable
define internal void @tcg_out_ext8u(ptr noundef %0, i32 noundef %1, i32 noundef %2) #0 {
  %4 = alloca ptr, align 8
  %5 = alloca i32, align 4
  %6 = alloca i32, align 4
  store ptr %0, ptr %4, align 8
  store i32 %1, ptr %5, align 4
  store i32 %2, ptr %6, align 4
  %7 = load ptr, ptr %4, align 8
  %8 = load i32, ptr %5, align 4
  %9 = load i32, ptr %6, align 4
  call void @tcg_out_modrm(ptr noundef %7, i32 noundef 16822, i32 noundef %8, i32 noundef %9)
  ret void
}

; Function Attrs: nounwind sspstrong uwtable
define internal void @tcg_out_ext32u(ptr noundef %0, i32 noundef %1, i32 noundef %2) #0 {
  %4 = alloca ptr, align 8
  %5 = alloca i32, align 4
  %6 = alloca i32, align 4
  store ptr %0, ptr %4, align 8
  store i32 %1, ptr %5, align 4
  store i32 %2, ptr %6, align 4
  %7 = load ptr, ptr %4, align 8
  %8 = load i32, ptr %5, align 4
  %9 = load i32, ptr %6, align 4
  call void @tcg_out_modrm(ptr noundef %7, i32 noundef 139, i32 noundef %8, i32 noundef %9)
  ret void
}

; Function Attrs: nounwind sspstrong uwtable
define internal void @tgen_arithi(ptr noundef %0, i32 noundef %1, i32 noundef %2, i64 noundef %3, i32 noundef %4) #0 {
  %6 = alloca ptr, align 8
  %7 = alloca i32, align 4
  %8 = alloca i32, align 4
  %9 = alloca i64, align 8
  %10 = alloca i32, align 4
  %11 = alloca i32, align 4
  %12 = alloca i32, align 4
  %13 = alloca i32, align 4
  store ptr %0, ptr %6, align 8
  store i32 %1, ptr %7, align 4
  store i32 %2, ptr %8, align 4
  store i64 %3, ptr %9, align 8
  store i32 %4, ptr %10, align 4
  call void @llvm.lifetime.start.p0(i64 4, ptr %11) #19
  store i32 0, ptr %11, align 4
  %14 = load i32, ptr %7, align 4
  %15 = and i32 %14, -8
  store i32 %15, ptr %11, align 4
  %16 = load i32, ptr %7, align 4
  %17 = and i32 %16, 7
  store i32 %17, ptr %7, align 4
  %18 = load i32, ptr %7, align 4
  switch i32 %18, label %102 [
    i32 0, label %19
    i32 5, label %19
    i32 4, label %51
    i32 1, label %84
    i32 6, label %84
  ]

19:                                               ; preds = %5, %5
  %20 = load i32, ptr %10, align 4
  %21 = icmp ne i32 %20, 0
  br i1 %21, label %50, label %22

22:                                               ; preds = %19
  %23 = load i64, ptr %9, align 8
  %24 = icmp eq i64 %23, 1
  br i1 %24, label %28, label %25

25:                                               ; preds = %22
  %26 = load i64, ptr %9, align 8
  %27 = icmp eq i64 %26, -1
  br i1 %27, label %28, label %43

28:                                               ; preds = %25, %22
  call void @llvm.lifetime.start.p0(i64 4, ptr %12) #19
  %29 = load i32, ptr %7, align 4
  %30 = icmp eq i32 %29, 0
  %31 = zext i1 %30 to i32
  %32 = load i64, ptr %9, align 8
  %33 = icmp slt i64 %32, 0
  %34 = zext i1 %33 to i32
  %35 = xor i32 %31, %34
  store i32 %35, ptr %12, align 4
  %36 = load ptr, ptr %6, align 8
  %37 = load i32, ptr %11, align 4
  %38 = add i32 255, %37
  %39 = load i32, ptr %12, align 4
  %40 = icmp ne i32 %39, 0
  %41 = select i1 %40, i32 0, i32 1
  %42 = load i32, ptr %8, align 4
  call void @tcg_out_modrm(ptr noundef %36, i32 noundef %38, i32 noundef %41, i32 noundef %42)
  store i32 1, ptr %13, align 4
  call void @llvm.lifetime.end.p0(i64 4, ptr %12) #19
  br label %139

43:                                               ; preds = %25
  %44 = load i64, ptr %9, align 8
  %45 = icmp eq i64 %44, 128
  br i1 %45, label %46, label %49

46:                                               ; preds = %43
  %47 = load i32, ptr %7, align 4
  %48 = xor i32 %47, 5
  store i32 %48, ptr %7, align 4
  store i64 -128, ptr %9, align 8
  br label %49

49:                                               ; preds = %46, %43
  br label %50

50:                                               ; preds = %49, %19
  br label %102

51:                                               ; preds = %5
  %52 = load i64, ptr %9, align 8
  %53 = icmp eq i64 %52, 4294967295
  br i1 %53, label %54, label %58

54:                                               ; preds = %51
  %55 = load ptr, ptr %6, align 8
  %56 = load i32, ptr %8, align 4
  %57 = load i32, ptr %8, align 4
  call void @tcg_out_ext32u(ptr noundef %55, i32 noundef %56, i32 noundef %57)
  store i32 1, ptr %13, align 4
  br label %139

58:                                               ; preds = %51
  %59 = load i64, ptr %9, align 8
  %60 = load i64, ptr %9, align 8
  %61 = trunc i64 %60 to i32
  %62 = zext i32 %61 to i64
  %63 = icmp eq i64 %59, %62
  br i1 %63, label %64, label %65

64:                                               ; preds = %58
  store i32 0, ptr %11, align 4
  br label %65

65:                                               ; preds = %64, %58
  %66 = load i64, ptr %9, align 8
  %67 = icmp eq i64 %66, 255
  br i1 %67, label %68, label %76

68:                                               ; preds = %65
  %69 = load i32, ptr %8, align 4
  %70 = icmp slt i32 %69, 4
  br i1 %70, label %72, label %71

71:                                               ; preds = %68
  br i1 true, label %72, label %76

72:                                               ; preds = %71, %68
  %73 = load ptr, ptr %6, align 8
  %74 = load i32, ptr %8, align 4
  %75 = load i32, ptr %8, align 4
  call void @tcg_out_ext8u(ptr noundef %73, i32 noundef %74, i32 noundef %75)
  store i32 1, ptr %13, align 4
  br label %139

76:                                               ; preds = %71, %65
  %77 = load i64, ptr %9, align 8
  %78 = icmp eq i64 %77, 65535
  br i1 %78, label %79, label %83

79:                                               ; preds = %76
  %80 = load ptr, ptr %6, align 8
  %81 = load i32, ptr %8, align 4
  %82 = load i32, ptr %8, align 4
  call void @tcg_out_ext16u(ptr noundef %80, i32 noundef %81, i32 noundef %82)
  store i32 1, ptr %13, align 4
  br label %139

83:                                               ; preds = %76
  br label %102

84:                                               ; preds = %5, %5
  %85 = load i64, ptr %9, align 8
  %86 = icmp sge i64 %85, 128
  br i1 %86, label %87, label %101

87:                                               ; preds = %84
  %88 = load i64, ptr %9, align 8
  %89 = icmp sle i64 %88, 255
  br i1 %89, label %90, label %101

90:                                               ; preds = %87
  %91 = load i32, ptr %8, align 4
  %92 = icmp slt i32 %91, 4
  br i1 %92, label %94, label %93

93:                                               ; preds = %90
  br i1 true, label %94, label %101

94:                                               ; preds = %93, %90
  %95 = load ptr, ptr %6, align 8
  %96 = load i32, ptr %7, align 4
  %97 = load i32, ptr %8, align 4
  call void @tcg_out_modrm(ptr noundef %95, i32 noundef 16512, i32 noundef %96, i32 noundef %97)
  %98 = load ptr, ptr %6, align 8
  %99 = load i64, ptr %9, align 8
  %100 = trunc i64 %99 to i8
  call void @tcg_out8(ptr noundef %98, i8 noundef zeroext %100)
  store i32 1, ptr %13, align 4
  br label %139

101:                                              ; preds = %93, %87, %84
  br label %102

102:                                              ; preds = %5, %101, %83, %50
  %103 = load i64, ptr %9, align 8
  %104 = load i64, ptr %9, align 8
  %105 = trunc i64 %104 to i8
  %106 = sext i8 %105 to i64
  %107 = icmp eq i64 %103, %106
  br i1 %107, label %108, label %117

108:                                              ; preds = %102
  %109 = load ptr, ptr %6, align 8
  %110 = load i32, ptr %11, align 4
  %111 = add i32 131, %110
  %112 = load i32, ptr %7, align 4
  %113 = load i32, ptr %8, align 4
  call void @tcg_out_modrm(ptr noundef %109, i32 noundef %111, i32 noundef %112, i32 noundef %113)
  %114 = load ptr, ptr %6, align 8
  %115 = load i64, ptr %9, align 8
  %116 = trunc i64 %115 to i8
  call void @tcg_out8(ptr noundef %114, i8 noundef zeroext %116)
  store i32 1, ptr %13, align 4
  br label %139

117:                                              ; preds = %102
  %118 = load i32, ptr %11, align 4
  %119 = icmp eq i32 %118, 0
  br i1 %119, label %126, label %120

120:                                              ; preds = %117
  %121 = load i64, ptr %9, align 8
  %122 = load i64, ptr %9, align 8
  %123 = trunc i64 %122 to i32
  %124 = sext i32 %123 to i64
  %125 = icmp eq i64 %121, %124
  br i1 %125, label %126, label %135

126:                                              ; preds = %120, %117
  %127 = load ptr, ptr %6, align 8
  %128 = load i32, ptr %11, align 4
  %129 = add i32 129, %128
  %130 = load i32, ptr %7, align 4
  %131 = load i32, ptr %8, align 4
  call void @tcg_out_modrm(ptr noundef %127, i32 noundef %129, i32 noundef %130, i32 noundef %131)
  %132 = load ptr, ptr %6, align 8
  %133 = load i64, ptr %9, align 8
  %134 = trunc i64 %133 to i32
  call void @tcg_out32(ptr noundef %132, i32 noundef %134)
  store i32 1, ptr %13, align 4
  br label %139

135:                                              ; preds = %120
  br label %136

136:                                              ; preds = %135
  call void @g_assertion_message_expr(ptr noundef null, ptr noundef @.str.51, i32 noundef 1494, ptr noundef @__func__.tgen_arithi, ptr noundef null) #20
  unreachable

137:                                              ; No predecessors!
  br label %138

138:                                              ; preds = %137
  store i32 0, ptr %13, align 4
  br label %139

139:                                              ; preds = %138, %126, %108, %94, %79, %72, %54, %28
  call void @llvm.lifetime.end.p0(i64 4, ptr %11) #19
  %140 = load i32, ptr %13, align 4
  switch i32 %140, label %142 [
    i32 0, label %141
    i32 1, label %141
  ]

141:                                              ; preds = %139, %139
  ret void

142:                                              ; preds = %139
  unreachable
}