; Function Attrs: nounwind sspstrong uwtable
define internal fastcc void @tgen_arithi(ptr noundef captures(none) %0, i32 noundef range(i32 0, 4104) %1, i32 noundef %2, i64 noundef %3, i32 noundef range(i32 0, 2) %4) unnamed_addr #0 {
  %6 = and i32 %1, 8184
  %7 = and i32 %1, 7
  switch i32 %7, label %118 [
    i32 0, label %8
    i32 5, label %8
    i32 4, label %16
    i32 1, label %92
    i32 6, label %92
  ]

8:                                                ; preds = %5, %5
  %.not = icmp eq i32 %4, 0
  br i1 %.not, label %9, label %118

9:                                                ; preds = %8
  switch i64 %3, label %118 [
    i64 -1, label %10
    i64 1, label %10
    i64 128, label %.thread
  ]

10:                                               ; preds = %9, %9
  %11 = add nuw nsw i32 %6, 255
  %12 = icmp slt i64 %3, 0
  %13 = icmp ne i32 %7, 0
  %.not6061 = xor i1 %13, %12
  %14 = zext i1 %.not6061 to i32
  tail call fastcc void @tcg_out_modrm(ptr noundef %0, i32 noundef %11, i32 noundef %14, i32 noundef %2)
  br label %138

.thread:                                          ; preds = %9
  %15 = xor i32 %7, 5
  br label %121

16:                                               ; preds = %5
  %17 = icmp eq i64 %3, 4294967295
  br i1 %17, label %18, label %40

18:                                               ; preds = %16
  %19 = lshr i32 %2, 1
  %20 = and i32 %19, 4
  %21 = lshr i32 %2, 3
  %22 = and i32 %21, 1
  %23 = or disjoint i32 %22, %20
  %.not37.i.i.i = icmp eq i32 %23, 0
  br i1 %.not37.i.i.i, label %tcg_out_ext32u.exit, label %24

24:                                               ; preds = %18
  %25 = trunc nuw nsw i32 %23 to i8
  %26 = or disjoint i8 %25, 64
  %27 = getelementptr inbounds nuw i8, ptr %0, i64 128
  %28 = load ptr, ptr %27, align 8
  %29 = getelementptr inbounds nuw i8, ptr %28, i64 1
  store ptr %29, ptr %27, align 8
  store i8 %26, ptr %28, align 1
  br label %tcg_out_ext32u.exit

tcg_out_ext32u.exit:                              ; preds = %18, %24
  %30 = getelementptr inbounds nuw i8, ptr %0, i64 128
  %31 = load ptr, ptr %30, align 8
  %32 = getelementptr inbounds nuw i8, ptr %31, i64 1
  store ptr %32, ptr %30, align 8
  store i8 -117, ptr %31, align 1
  %33 = shl i32 %2, 3
  %34 = and i32 %2, 7
  %35 = or disjoint i32 %34, %33
  %36 = trunc i32 %35 to i8
  %37 = or i8 %36, -64
  %38 = load ptr, ptr %30, align 8
  %39 = getelementptr inbounds nuw i8, ptr %38, i64 1
  store ptr %39, ptr %30, align 8
  store i8 %37, ptr %38, align 1
  br label %138

40:                                               ; preds = %16
  %41 = icmp ult i64 %3, 4294967296
  %spec.select = select i1 %41, i32 0, i32 %6
  switch i64 %3, label %118 [
    i64 255, label %42
    i64 65535, label %68
  ]

42:                                               ; preds = %40
  %43 = lshr i32 %2, 1
  %44 = and i32 %43, 4
  %45 = lshr i32 %2, 3
  %46 = and i32 %45, 1
  %47 = or disjoint i32 %46, %44
  %48 = icmp slt i32 %2, 4
  %49 = icmp eq i32 %47, 0
  %.not37.i.i.i63 = and i1 %48, %49
  br i1 %.not37.i.i.i63, label %tcg_out_ext8u.exit, label %50

50:                                               ; preds = %42
  %51 = trunc nuw nsw i32 %47 to i8
  %52 = or disjoint i8 %51, 64
  %53 = getelementptr inbounds nuw i8, ptr %0, i64 128
  %54 = load ptr, ptr %53, align 8
  %55 = getelementptr inbounds nuw i8, ptr %54, i64 1
  store ptr %55, ptr %53, align 8
  store i8 %52, ptr %54, align 1
  br label %tcg_out_ext8u.exit

tcg_out_ext8u.exit:                               ; preds = %42, %50
  %56 = getelementptr inbounds nuw i8, ptr %0, i64 128
  %57 = load ptr, ptr %56, align 8
  %58 = getelementptr inbounds nuw i8, ptr %57, i64 1
  store ptr %58, ptr %56, align 8
  store i8 15, ptr %57, align 1
  %59 = load ptr, ptr %56, align 8
  %60 = getelementptr inbounds nuw i8, ptr %59, i64 1
  store ptr %60, ptr %56, align 8
  store i8 -74, ptr %59, align 1
  %61 = shl i32 %2, 3
  %62 = and i32 %2, 7
  %63 = or disjoint i32 %62, %61
  %64 = trunc i32 %63 to i8
  %65 = or i8 %64, -64
  %66 = load ptr, ptr %56, align 8
  %67 = getelementptr inbounds nuw i8, ptr %66, i64 1
  store ptr %67, ptr %56, align 8
  store i8 %65, ptr %66, align 1
  br label %138

68:                                               ; preds = %40
  %69 = lshr i32 %2, 1
  %70 = and i32 %69, 4
  %71 = lshr i32 %2, 3
  %72 = and i32 %71, 1
  %73 = or disjoint i32 %72, %70
  %.not37.i.i.i64 = icmp eq i32 %73, 0
  br i1 %.not37.i.i.i64, label %tcg_out_ext16u.exit, label %74

74:                                               ; preds = %68
  %75 = trunc nuw nsw i32 %73 to i8
  %76 = or disjoint i8 %75, 64
  %77 = getelementptr inbounds nuw i8, ptr %0, i64 128
  %78 = load ptr, ptr %77, align 8
  %79 = getelementptr inbounds nuw i8, ptr %78, i64 1
  store ptr %79, ptr %77, align 8
  store i8 %76, ptr %78, align 1
  br label %tcg_out_ext16u.exit

tcg_out_ext16u.exit:                              ; preds = %68, %74
  %80 = getelementptr inbounds nuw i8, ptr %0, i64 128
  %81 = load ptr, ptr %80, align 8
  %82 = getelementptr inbounds nuw i8, ptr %81, i64 1
  store ptr %82, ptr %80, align 8
  store i8 15, ptr %81, align 1
  %83 = load ptr, ptr %80, align 8
  %84 = getelementptr inbounds nuw i8, ptr %83, i64 1
  store ptr %84, ptr %80, align 8
  store i8 -73, ptr %83, align 1
  %85 = shl i32 %2, 3
  %86 = and i32 %2, 7
  %87 = or disjoint i32 %86, %85
  %88 = trunc i32 %87 to i8
  %89 = or i8 %88, -64
  %90 = load ptr, ptr %80, align 8
  %91 = getelementptr inbounds nuw i8, ptr %90, i64 1
  store ptr %91, ptr %80, align 8
  store i8 %89, ptr %90, align 1
  br label %138

92:                                               ; preds = %5, %5
  %93 = and i64 %3, -128
  %or.cond3 = icmp eq i64 %93, 128
  br i1 %or.cond3, label %94, label %118

94:                                               ; preds = %92
  %95 = lshr i32 %2, 3
  %96 = and i32 %95, 1
  %97 = icmp slt i32 %2, 4
  %98 = icmp eq i32 %96, 0
  %.not37.i.i = and i1 %97, %98
  br i1 %.not37.i.i, label %tcg_out_modrm.exit, label %99

99:                                               ; preds = %94
  %100 = trunc nuw nsw i32 %96 to i8
  %101 = or disjoint i8 %100, 64
  %102 = getelementptr inbounds nuw i8, ptr %0, i64 128
  %103 = load ptr, ptr %102, align 8
  %104 = getelementptr inbounds nuw i8, ptr %103, i64 1
  store ptr %104, ptr %102, align 8
  store i8 %101, ptr %103, align 1
  br label %tcg_out_modrm.exit

tcg_out_modrm.exit:                               ; preds = %94, %99
  %105 = getelementptr inbounds nuw i8, ptr %0, i64 128
  %106 = load ptr, ptr %105, align 8
  %107 = getelementptr inbounds nuw i8, ptr %106, i64 1
  store ptr %107, ptr %105, align 8
  store i8 -128, ptr %106, align 1
  %108 = shl nuw nsw i32 %1, 3
  %109 = and i32 %2, 7
  %110 = or disjoint i32 %109, %108
  %111 = trunc i32 %110 to i8
  %112 = or i8 %111, -64
  %113 = load ptr, ptr %105, align 8
  %114 = getelementptr inbounds nuw i8, ptr %113, i64 1
  store ptr %114, ptr %105, align 8
  store i8 %112, ptr %113, align 1
  %115 = trunc nuw i64 %3 to i8
  %116 = load ptr, ptr %105, align 8
  %117 = getelementptr inbounds nuw i8, ptr %116, i64 1
  store ptr %117, ptr %105, align 8
  store i8 %115, ptr %116, align 1
  br label %138

118:                                              ; preds = %40, %9, %92, %8, %5
  %.056 = phi i32 [ %6, %5 ], [ %6, %92 ], [ %6, %8 ], [ %6, %9 ], [ %spec.select, %40 ]
  %119 = add i64 %3, 128
  %120 = icmp ult i64 %119, 256
  br i1 %120, label %121, label %127

121:                                              ; preds = %.thread, %118
  %.070 = phi i32 [ %15, %.thread ], [ %7, %118 ]
  %.05669 = phi i32 [ %6, %.thread ], [ %.056, %118 ]
  %.05768 = phi i64 [ -128, %.thread ], [ %3, %118 ]
  %122 = trunc i64 %.05768 to i8
  %123 = add nuw nsw i32 %.05669, 131
  tail call fastcc void @tcg_out_modrm(ptr noundef %0, i32 noundef %123, i32 noundef %.070, i32 noundef %2)
  %124 = getelementptr inbounds nuw i8, ptr %0, i64 128
  %125 = load ptr, ptr %124, align 8
  %126 = getelementptr inbounds nuw i8, ptr %125, i64 1
  store ptr %126, ptr %124, align 8
  store i8 %122, ptr %125, align 1
  br label %138

127:                                              ; preds = %118
  %128 = icmp eq i32 %.056, 0
  %129 = add i64 %3, 2147483648
  %130 = icmp ult i64 %129, 4294967296
  %or.cond = or i1 %130, %128
  br i1 %or.cond, label %131, label %137

131:                                              ; preds = %127
  %132 = add nuw nsw i32 %.056, 129
  tail call fastcc void @tcg_out_modrm(ptr noundef %0, i32 noundef %132, i32 noundef %7, i32 noundef %2)
  %133 = trunc i64 %3 to i32
  %134 = getelementptr inbounds nuw i8, ptr %0, i64 128
  %135 = load ptr, ptr %134, align 8
  store i32 %133, ptr %135, align 1
  %136 = getelementptr inbounds nuw i8, ptr %135, i64 4
  store ptr %136, ptr %134, align 8
  br label %138

137:                                              ; preds = %127
  tail call void @g_assertion_message_expr(ptr noundef null, ptr noundef nonnull @.str.51, i32 noundef 1494, ptr noundef nonnull @__func__.tgen_arithi, ptr noundef null) #31
  unreachable

138:                                              ; preds = %131, %121, %tcg_out_modrm.exit, %tcg_out_ext16u.exit, %tcg_out_ext8u.exit, %tcg_out_ext32u.exit, %10
  ret void
}